; Function Attrs: nounwind uwtable
define i32 @evp_keymgmt_gen_get_params(ptr noundef readonly captures(none) %0, ptr noundef %1, ptr noundef %2) local_unnamed_addr #0 {
  %4 = getelementptr inbounds nuw i8, ptr %0, i64 112
  %5 = load ptr, ptr %4, align 8, !tbaa !28
  %6 = icmp eq ptr %5, null
  br i1 %6, label %9, label %7

7:                                                ; preds = %3
  %8 = tail call i32 %5(ptr noundef %1, ptr noundef %2) #5
  br label %9

9:                                                ; preds = %3, %7
  %.0 = phi i32 [ %8, %7 ], [ 0, %3 ]
  ret i32 %.0
}